; Function Attrs: mustprogress nofree norecurse nosync nounwind willreturn memory(argmem: readwrite) uwtable
define void @ossl_quic_tx_packetiser_schedule_ack_eliciting(ptr noundef captures(none) %0, i32 noundef %1) local_unnamed_addr #1 {
  %3 = zext nneg i32 %1 to i64
  %4 = shl nuw i64 1, %3
  %5 = getelementptr inbounds nuw i8, ptr %0, i64 488
  %6 = load i16, ptr %5, align 8
  %7 = trunc i64 %4 to i16
  %8 = shl i16 %7, 7
  %9 = and i16 %8, 896
  %10 = or i16 %6, %9
  store i16 %10, ptr %5, align 8
  ret void
}